target datalayout = "e-m:e-p270:32:32-p271:32:32-p272:64:64-i64:64-i128:128-f80:128-n8:16:32:64-S128"
target triple = "x86_64-pc-linux-gnu"

@.str = private unnamed_addr constant [125 x i8] c"generated/home/dtcxzyw/WorkSpace/Projects/compilers/llvm-opt-benchmark/bench/libquic/libquic/boringssl/crypto/rsa/rsa_impl.c\00", align 1

; Function Attrs: nounwind uwtable
define hidden i32 @rsa_default_decrypt(ptr noundef %0, ptr noundef %1, ptr noundef %2, i64 noundef %3, ptr noundef %4, i64 noundef %5, i32 noundef %6) #0 {
  %8 = alloca i32, align 4
  %9 = alloca ptr, align 8
  %10 = alloca ptr, align 8
  %11 = alloca ptr, align 8
  %12 = alloca i64, align 8
  %13 = alloca ptr, align 8
  %14 = alloca i64, align 8
  %15 = alloca i32, align 4
  %16 = alloca i32, align 4
  %17 = alloca i32, align 4
  %18 = alloca ptr, align 8
  %19 = alloca i32, align 4
  %20 = alloca i32, align 4
  store ptr %0, ptr %9, align 8, !tbaa !6
  store ptr %1, ptr %10, align 8, !tbaa !22
  store ptr %2, ptr %11, align 8, !tbaa !24
  store i64 %3, ptr %12, align 8, !tbaa !25
  store ptr %4, ptr %13, align 8, !tbaa !24
  store i64 %5, ptr %14, align 8, !tbaa !25
  store i32 %6, ptr %15, align 4, !tbaa !27
  call void @llvm.lifetime.start.p0(i64 4, ptr %16) #7
  %21 = load ptr, ptr %9, align 8, !tbaa !6
  %22 = call i32 @RSA_size(ptr noundef %21)
  store i32 %22, ptr %16, align 4, !tbaa !27
  call void @llvm.lifetime.start.p0(i64 4, ptr %17) #7
  store i32 -1, ptr %17, align 4, !tbaa !27
  call void @llvm.lifetime.start.p0(i64 8, ptr %18) #7
  store ptr null, ptr %18, align 8, !tbaa !24
  call void @llvm.lifetime.start.p0(i64 4, ptr %19) #7
  store i32 0, ptr %19, align 4, !tbaa !27
  %23 = load i64, ptr %12, align 8, !tbaa !25
  %24 = load i32, ptr %16, align 4, !tbaa !27
  %25 = zext i32 %24 to i64
  %26 = icmp ult i64 %23, %25
  br i1 %26, label %27, label %28

27:                                               ; preds = %7
  call void @ERR_put_error(i32 noundef 4, i32 noundef 0, i32 noundef 135, ptr noundef @.str, i32 noundef 370)
  store i32 0, ptr %8, align 4
  store i32 1, ptr %20, align 4
  br label %95

28:                                               ; preds = %7
  %29 = load i32, ptr %15, align 4, !tbaa !27
  %30 = icmp eq i32 %29, 3
  br i1 %30, label %31, label %33

31:                                               ; preds = %28
  %32 = load ptr, ptr %11, align 8, !tbaa !24
  store ptr %32, ptr %18, align 8, !tbaa !24
  br label %41

33:                                               ; preds = %28
  %34 = load i32, ptr %16, align 4, !tbaa !27
  %35 = zext i32 %34 to i64
  %36 = call noalias ptr @malloc(i64 noundef %35) #8
  store ptr %36, ptr %18, align 8, !tbaa !24
  %37 = load ptr, ptr %18, align 8, !tbaa !24
  %38 = icmp eq ptr %37, null
  br i1 %38, label %39, label %40

39:                                               ; preds = %33
  call void @ERR_put_error(i32 noundef 4, i32 noundef 0, i32 noundef 65, ptr noundef @.str, i32 noundef 380)
  br label %82

40:                                               ; preds = %33
  br label %41

41:                                               ; preds = %40, %31
  %42 = load i64, ptr %14, align 8, !tbaa !25
  %43 = load i32, ptr %16, align 4, !tbaa !27
  %44 = zext i32 %43 to i64
  %45 = icmp ne i64 %42, %44
  br i1 %45, label %46, label %47

46:                                               ; preds = %41
  call void @ERR_put_error(i32 noundef 4, i32 noundef 0, i32 noundef 112, ptr noundef @.str, i32 noundef 386)
  br label %82

47:                                               ; preds = %41
  %48 = load ptr, ptr %9, align 8, !tbaa !6
  %49 = load ptr, ptr %18, align 8, !tbaa !24
  %50 = load ptr, ptr %13, align 8, !tbaa !24
  %51 = load i32, ptr %16, align 4, !tbaa !27
  %52 = zext i32 %51 to i64
  %53 = call i32 @RSA_private_transform(ptr noundef %48, ptr noundef %49, ptr noundef %50, i64 noundef %52)
  %54 = icmp ne i32 %53, 0
  br i1 %54, label %56, label %55

55:                                               ; preds = %47
  br label %82

56:                                               ; preds = %47
  %57 = load i32, ptr %15, align 4, !tbaa !27
  switch i32 %57, label %72 [
    i32 1, label %58
    i32 4, label %64
    i32 3, label %70
  ]

58:                                               ; preds = %56
  %59 = load ptr, ptr %11, align 8, !tbaa !24
  %60 = load i32, ptr %16, align 4, !tbaa !27
  %61 = load ptr, ptr %18, align 8, !tbaa !24
  %62 = load i32, ptr %16, align 4, !tbaa !27
  %63 = call i32 @RSA_padding_check_PKCS1_type_2(ptr noundef %59, i32 noundef %60, ptr noundef %61, i32 noundef %62)
  store i32 %63, ptr %17, align 4, !tbaa !27
  br label %73

64:                                               ; preds = %56
  %65 = load ptr, ptr %11, align 8, !tbaa !24
  %66 = load i32, ptr %16, align 4, !tbaa !27
  %67 = load ptr, ptr %18, align 8, !tbaa !24
  %68 = load i32, ptr %16, align 4, !tbaa !27
  %69 = call i32 @RSA_padding_check_PKCS1_OAEP_mgf1(ptr noundef %65, i32 noundef %66, ptr noundef %67, i32 noundef %68, ptr noundef null, i32 noundef 0, ptr noundef null, ptr noundef null)
  store i32 %69, ptr %17, align 4, !tbaa !27
  br label %73

70:                                               ; preds = %56
  %71 = load i32, ptr %16, align 4, !tbaa !27
  store i32 %71, ptr %17, align 4, !tbaa !27
  br label %73

72:                                               ; preds = %56
  call void @ERR_put_error(i32 noundef 4, i32 noundef 0, i32 noundef 143, ptr noundef @.str, i32 noundef 407)
  br label %82

73:                                               ; preds = %70, %64, %58
  %74 = load i32, ptr %17, align 4, !tbaa !27
  %75 = icmp slt i32 %74, 0
  br i1 %75, label %76, label %77

76:                                               ; preds = %73
  call void @ERR_put_error(i32 noundef 4, i32 noundef 0, i32 noundef 136, ptr noundef @.str, i32 noundef 412)
  br label %81

77:                                               ; preds = %73
  %78 = load i32, ptr %17, align 4, !tbaa !27
  %79 = sext i32 %78 to i64
  %80 = load ptr, ptr %10, align 8, !tbaa !22
  store i64 %79, ptr %80, align 8, !tbaa !25
  store i32 1, ptr %19, align 4, !tbaa !27
  br label %81

81:                                               ; preds = %77, %76
  br label %82

82:                                               ; preds = %81, %72, %55, %46, %39
  %83 = load i32, ptr %15, align 4, !tbaa !27
  %84 = icmp ne i32 %83, 3
  br i1 %84, label %85, label %93

85:                                               ; preds = %82
  %86 = load ptr, ptr %18, align 8, !tbaa !24
  %87 = icmp ne ptr %86, null
  br i1 %87, label %88, label %93

88:                                               ; preds = %85
  %89 = load ptr, ptr %18, align 8, !tbaa !24
  %90 = load i32, ptr %16, align 4, !tbaa !27
  %91 = zext i32 %90 to i64
  call void @OPENSSL_cleanse(ptr noundef %89, i64 noundef %91)
  %92 = load ptr, ptr %18, align 8, !tbaa !24
  call void @free(ptr noundef %92) #7
  br label %93

93:                                               ; preds = %88, %85, %82
  %94 = load i32, ptr %19, align 4, !tbaa !27
  store i32 %94, ptr %8, align 4
  store i32 1, ptr %20, align 4
  br label %95

95:                                               ; preds = %93, %27
  call void @llvm.lifetime.end.p0(i64 4, ptr %19) #7
  call void @llvm.lifetime.end.p0(i64 8, ptr %18) #7
  call void @llvm.lifetime.end.p0(i64 4, ptr %17) #7
  call void @llvm.lifetime.end.p0(i64 4, ptr %16) #7
  %96 = load i32, ptr %8, align 4
  ret i32 %96
}