; Function Attrs: nounwind uwtable
define hidden range(i32 0, 2) i32 @rsa_default_decrypt(ptr noundef %0, ptr noundef writeonly captures(none) %1, ptr noundef %2, i64 noundef %3, ptr noundef %4, i64 noundef %5, i32 noundef %6) local_unnamed_addr #0 {
  %8 = tail call i32 @RSA_size(ptr noundef %0) #8
  %9 = zext i32 %8 to i64
  %10 = icmp ult i64 %3, %9
  br i1 %10, label %11, label %12

11:                                               ; preds = %7
  tail call void @ERR_put_error(i32 noundef 4, i32 noundef 0, i32 noundef 135, ptr noundef nonnull @.str, i32 noundef 370) #8
  br label %36

12:                                               ; preds = %7
  %13 = icmp eq i32 %6, 3
  br i1 %13, label %17, label %14

14:                                               ; preds = %12
  %15 = tail call noalias ptr @malloc(i64 noundef %9) #9
  %16 = icmp eq ptr %15, null
  br i1 %16, label %.thread, label %17

.thread:                                          ; preds = %14
  tail call void @ERR_put_error(i32 noundef 4, i32 noundef 0, i32 noundef 65, ptr noundef nonnull @.str, i32 noundef 380) #8
  br label %36

17:                                               ; preds = %12, %14
  %.033 = phi ptr [ %15, %14 ], [ %2, %12 ]
  %.not = icmp eq i64 %5, %9
  br i1 %.not, label %19, label %18

18:                                               ; preds = %17
  tail call void @ERR_put_error(i32 noundef 4, i32 noundef 0, i32 noundef 112, ptr noundef nonnull @.str, i32 noundef 386) #8
  br label %32

19:                                               ; preds = %17
  %20 = tail call i32 @RSA_private_transform(ptr noundef %0, ptr noundef %.033, ptr noundef %4, i64 noundef %5) #8
  %.not39 = icmp eq i32 %20, 0
  br i1 %.not39, label %32, label %21

21:                                               ; preds = %19
  switch i32 %6, label %26 [
    i32 1, label %22
    i32 4, label %24
    i32 3, label %27
  ]

22:                                               ; preds = %21
  %23 = tail call i32 @RSA_padding_check_PKCS1_type_2(ptr noundef %2, i32 noundef %8, ptr noundef %.033, i32 noundef %8) #8
  br label %27

24:                                               ; preds = %21
  %25 = tail call i32 @RSA_padding_check_PKCS1_OAEP_mgf1(ptr noundef %2, i32 noundef %8, ptr noundef %.033, i32 noundef %8, ptr noundef null, i32 noundef 0, ptr noundef null, ptr noundef null) #8
  br label %27

26:                                               ; preds = %21
  tail call void @ERR_put_error(i32 noundef 4, i32 noundef 0, i32 noundef 143, ptr noundef nonnull @.str, i32 noundef 407) #8
  br label %32

27:                                               ; preds = %21, %24, %22
  %.034 = phi i32 [ %25, %24 ], [ %23, %22 ], [ %8, %21 ]
  %28 = icmp slt i32 %.034, 0
  br i1 %28, label %29, label %30

29:                                               ; preds = %27
  tail call void @ERR_put_error(i32 noundef 4, i32 noundef 0, i32 noundef 136, ptr noundef nonnull @.str, i32 noundef 412) #8
  br label %32

30:                                               ; preds = %27
  %31 = zext nneg i32 %.034 to i64
  store i64 %31, ptr %1, align 8, !tbaa !22
  br label %32

32:                                               ; preds = %29, %30, %19, %26, %18
  %.0 = phi i32 [ 0, %18 ], [ 0, %26 ], [ 0, %29 ], [ 1, %30 ], [ 0, %19 ]
  %33 = icmp ne i32 %6, 3
  %34 = icmp ne ptr %.033, null
  %or.cond = and i1 %33, %34
  br i1 %or.cond, label %35, label %36

35:                                               ; preds = %32
  tail call void @OPENSSL_cleanse(ptr noundef nonnull %.033, i64 noundef %9) #8
  tail call void @free(ptr noundef nonnull %.033) #8
  br label %36

36:                                               ; preds = %.thread, %32, %35, %11
  %.035 = phi i32 [ 0, %11 ], [ %.0, %35 ], [ %.0, %32 ], [ 0, %.thread ]
  ret i32 %.035
}